(dp1
S'info'
p2
VReloads MMTK
p3
sS'name'
p4
VReload MMTK
p5
sS'tags'
p6
VMMTK
p7
sS'syntax'
p8
S'python'
p9
sS'command'
p10
Vfrom mmtk.common.reload import reload_mmtk; reload_mmtk()
p11
sS'id'
p12
S'392540e684b9a0L'
p13
sS'icon'
p14
Vrefresh.svg
p15
s.