(dp1
S'info'
p2
Vopens ngSkinTools2 UI
p3
sS'name'
p4
VngSkinTools 2
p5
sS'tags'
p6
VngSkinTools2
p7
sS'syntax'
p8
S'python'
p9
sS'command'
p10
Vimport ngSkinTools2; ngSkinTools2.open_ui()
p11
sS'id'
p12
S'39253ef472ed40L'
p13
sS'icon'
p14
VngSkinTools2ShelfIcon.png
p15
s.